; Function Attrs: nounwind ssp uwtable
define dso_local noundef i32 @crypto_aead_chacha20poly1305_ietf_encrypt_detached(ptr noundef nonnull %0, ptr noundef nonnull %1, ptr noundef writeonly captures(address_is_null) %2, ptr noundef %3, i64 noundef %4, ptr noundef %5, i64 noundef %6, ptr readnone captures(none) %7, ptr noundef nonnull %8, ptr noundef nonnull %9) local_unnamed_addr #0 {
  %11 = alloca %struct.crypto_onetimeauth_poly1305_state, align 16
  %12 = alloca [64 x i8], align 16
  %13 = alloca [8 x i8], align 8
  call void @llvm.lifetime.start.p0(i64 256, ptr nonnull %11) #6
  call void @llvm.lifetime.start.p0(i64 64, ptr nonnull %12) #6
  call void @llvm.lifetime.start.p0(i64 8, ptr nonnull %13) #6
  %14 = call i32 @crypto_stream_chacha20_ietf(ptr noundef nonnull %12, i64 noundef 64, ptr noundef nonnull %8, ptr noundef nonnull %9) #6
  %15 = call i32 @crypto_onetimeauth_poly1305_init(ptr noundef nonnull %11, ptr noundef nonnull %12) #6
  call void @sodium_memzero(ptr noundef nonnull %12, i64 noundef 64) #6
  %16 = call i32 @crypto_onetimeauth_poly1305_update(ptr noundef nonnull %11, ptr noundef %5, i64 noundef %6) #6
  %17 = sub i64 0, %6
  %18 = and i64 %17, 15
  %19 = call i32 @crypto_onetimeauth_poly1305_update(ptr noundef nonnull %11, ptr noundef nonnull @_pad0, i64 noundef %18) #6
  %20 = call i32 @crypto_stream_chacha20_ietf_xor_ic(ptr noundef nonnull %0, ptr noundef %3, i64 noundef %4, ptr noundef nonnull %8, i32 noundef 1, ptr noundef nonnull %9) #6
  %21 = call i32 @crypto_onetimeauth_poly1305_update(ptr noundef nonnull %11, ptr noundef nonnull %0, i64 noundef %4) #6
  %22 = sub i64 0, %4
  %23 = and i64 %22, 15
  %24 = call i32 @crypto_onetimeauth_poly1305_update(ptr noundef nonnull %11, ptr noundef nonnull @_pad0, i64 noundef %23) #6
  store i64 %6, ptr %13, align 8
  %25 = call i32 @crypto_onetimeauth_poly1305_update(ptr noundef nonnull %11, ptr noundef nonnull %13, i64 noundef 8) #6
  store i64 %4, ptr %13, align 8
  %26 = call i32 @crypto_onetimeauth_poly1305_update(ptr noundef nonnull %11, ptr noundef nonnull %13, i64 noundef 8) #6
  %27 = call i32 @crypto_onetimeauth_poly1305_final(ptr noundef nonnull %11, ptr noundef nonnull %1) #6
  call void @sodium_memzero(ptr noundef nonnull %11, i64 noundef 256) #6
  %.not = icmp eq ptr %2, null
  br i1 %.not, label %29, label %28

28:                                               ; preds = %10
  store i64 16, ptr %2, align 8
  br label %29

29:                                               ; preds = %28, %10
  call void @llvm.lifetime.end.p0(i64 8, ptr nonnull %13) #6
  call void @llvm.lifetime.end.p0(i64 64, ptr nonnull %12) #6
  call void @llvm.lifetime.end.p0(i64 256, ptr nonnull %11) #6
  ret i32 0
}